; Function Attrs: nounwind uwtable
define internal fastcc void @mbim_dissect_sim_auth_info(ptr noundef %0, ptr noundef %1, i32 noundef %2) unnamed_addr #0 {
  %4 = load i32, ptr @hf_mbim_sim_auth_info_sres1, align 4
  %5 = tail call ptr @proto_tree_add_item(ptr noundef %1, i32 noundef %4, ptr noundef %0, i32 noundef %2, i32 noundef 4, i32 noundef -2147483648) #10
  %6 = add i32 %2, 4
  %7 = load i32, ptr @hf_mbim_sim_auth_info_kc1, align 4
  %8 = tail call ptr @proto_tree_add_item(ptr noundef %1, i32 noundef %7, ptr noundef %0, i32 noundef %6, i32 noundef 8, i32 noundef -2147483648) #10
  %9 = add i32 %2, 12
  %10 = load i32, ptr @hf_mbim_sim_auth_info_sres2, align 4
  %11 = tail call ptr @proto_tree_add_item(ptr noundef %1, i32 noundef %10, ptr noundef %0, i32 noundef %9, i32 noundef 4, i32 noundef -2147483648) #10
  %12 = add i32 %2, 16
  %13 = load i32, ptr @hf_mbim_sim_auth_info_kc2, align 4
  %14 = tail call ptr @proto_tree_add_item(ptr noundef %1, i32 noundef %13, ptr noundef %0, i32 noundef %12, i32 noundef 8, i32 noundef -2147483648) #10
  %15 = add i32 %2, 24
  %16 = load i32, ptr @hf_mbim_sim_auth_info_sres3, align 4
  %17 = tail call ptr @proto_tree_add_item(ptr noundef %1, i32 noundef %16, ptr noundef %0, i32 noundef %15, i32 noundef 4, i32 noundef -2147483648) #10
  %18 = add i32 %2, 28
  %19 = load i32, ptr @hf_mbim_sim_auth_info_kc3, align 4
  %20 = tail call ptr @proto_tree_add_item(ptr noundef %1, i32 noundef %19, ptr noundef %0, i32 noundef %18, i32 noundef 8, i32 noundef -2147483648) #10
  %21 = add i32 %2, 36
  %22 = load i32, ptr @hf_mbim_sim_auth_info_n, align 4
  %23 = tail call ptr @proto_tree_add_item(ptr noundef %1, i32 noundef %22, ptr noundef %0, i32 noundef %21, i32 noundef 4, i32 noundef -2147483648) #10
  ret void
}